target datalayout = "e-m:e-p270:32:32-p271:32:32-p272:64:64-i64:64-i128:128-f80:128-n8:16:32:64-S128"
target triple = "x86_64-pc-linux-gnu"

%struct.asn1_string_st = type { i32, i32, ptr, i64 }

@.str.10 = private unnamed_addr constant [2 x i8] c"\0A\00", align 1
@.str.11 = private unnamed_addr constant [6 x i8] c"r:   \00", align 1
@.str.12 = private unnamed_addr constant [6 x i8] c"s:   \00", align 1

; Function Attrs: nounwind uwtable
define internal i32 @dsa_sig_print(ptr noundef %0, ptr noundef %1, ptr noundef %2, i32 noundef %3, ptr noundef %4) #0 {
  %6 = alloca i32, align 4
  %7 = alloca ptr, align 8
  %8 = alloca ptr, align 8
  %9 = alloca ptr, align 8
  %10 = alloca i32, align 4
  %11 = alloca ptr, align 8
  %12 = alloca ptr, align 8
  %13 = alloca ptr, align 8
  %14 = alloca i32, align 4
  %15 = alloca i32, align 4
  %16 = alloca ptr, align 8
  %17 = alloca ptr, align 8
  store ptr %0, ptr %7, align 8, !tbaa !50
  store ptr %1, ptr %8, align 8, !tbaa !14
  store ptr %2, ptr %9, align 8, !tbaa !10
  store i32 %3, ptr %10, align 4, !tbaa !16
  store ptr %4, ptr %11, align 8, !tbaa !52
  call void @llvm.lifetime.start.p0(i64 8, ptr %12) #3
  call void @llvm.lifetime.start.p0(i64 8, ptr %13) #3
  %18 = load ptr, ptr %9, align 8, !tbaa !10
  %19 = icmp eq ptr %18, null
  br i1 %19, label %20, label %26

20:                                               ; preds = %5
  %21 = load ptr, ptr %7, align 8, !tbaa !50
  %22 = call i32 @BIO_puts(ptr noundef %21, ptr noundef @.str.10)
  %23 = icmp sle i32 %22, 0
  br i1 %23, label %24, label %25

24:                                               ; preds = %20
  store i32 0, ptr %6, align 4
  store i32 1, ptr %14, align 4
  br label %71

25:                                               ; preds = %20
  store i32 1, ptr %6, align 4
  store i32 1, ptr %14, align 4
  br label %71

26:                                               ; preds = %5
  %27 = load ptr, ptr %9, align 8, !tbaa !10
  %28 = getelementptr inbounds nuw %struct.asn1_string_st, ptr %27, i32 0, i32 2
  %29 = load ptr, ptr %28, align 8, !tbaa !19
  store ptr %29, ptr %13, align 8, !tbaa !23
  %30 = load ptr, ptr %9, align 8, !tbaa !10
  %31 = getelementptr inbounds nuw %struct.asn1_string_st, ptr %30, i32 0, i32 0
  %32 = load i32, ptr %31, align 8, !tbaa !24
  %33 = sext i32 %32 to i64
  %34 = call ptr @d2i_DSA_SIG(ptr noundef null, ptr noundef %13, i64 noundef %33)
  store ptr %34, ptr %12, align 8, !tbaa !60
  %35 = load ptr, ptr %12, align 8, !tbaa !60
  %36 = icmp ne ptr %35, null
  br i1 %36, label %37, label %61

37:                                               ; preds = %26
  call void @llvm.lifetime.start.p0(i64 4, ptr %15) #3
  store i32 0, ptr %15, align 4, !tbaa !16
  call void @llvm.lifetime.start.p0(i64 8, ptr %16) #3
  call void @llvm.lifetime.start.p0(i64 8, ptr %17) #3
  %38 = load ptr, ptr %12, align 8, !tbaa !60
  call void @DSA_SIG_get0(ptr noundef %38, ptr noundef %16, ptr noundef %17)
  %39 = load ptr, ptr %7, align 8, !tbaa !50
  %40 = call i32 @BIO_write(ptr noundef %39, ptr noundef @.str.10, i32 noundef 1)
  %41 = icmp ne i32 %40, 1
  br i1 %41, label %42, label %43

42:                                               ; preds = %37
  br label %58

43:                                               ; preds = %37
  %44 = load ptr, ptr %7, align 8, !tbaa !50
  %45 = load ptr, ptr %16, align 8, !tbaa !62
  %46 = load i32, ptr %10, align 4, !tbaa !16
  %47 = call i32 @ASN1_bn_print(ptr noundef %44, ptr noundef @.str.11, ptr noundef %45, ptr noundef null, i32 noundef %46)
  %48 = icmp ne i32 %47, 0
  br i1 %48, label %50, label %49

49:                                               ; preds = %43
  br label %58

50:                                               ; preds = %43
  %51 = load ptr, ptr %7, align 8, !tbaa !50
  %52 = load ptr, ptr %17, align 8, !tbaa !62
  %53 = load i32, ptr %10, align 4, !tbaa !16
  %54 = call i32 @ASN1_bn_print(ptr noundef %51, ptr noundef @.str.12, ptr noundef %52, ptr noundef null, i32 noundef %53)
  %55 = icmp ne i32 %54, 0
  br i1 %55, label %57, label %56

56:                                               ; preds = %50
  br label %58

57:                                               ; preds = %50
  store i32 1, ptr %15, align 4, !tbaa !16
  br label %58

58:                                               ; preds = %57, %56, %49, %42
  %59 = load ptr, ptr %12, align 8, !tbaa !60
  call void @DSA_SIG_free(ptr noundef %59)
  %60 = load i32, ptr %15, align 4, !tbaa !16
  store i32 %60, ptr %6, align 4
  store i32 1, ptr %14, align 4
  call void @llvm.lifetime.end.p0(i64 8, ptr %17) #3
  call void @llvm.lifetime.end.p0(i64 8, ptr %16) #3
  call void @llvm.lifetime.end.p0(i64 4, ptr %15) #3
  br label %71

61:                                               ; preds = %26
  %62 = load ptr, ptr %7, align 8, !tbaa !50
  %63 = call i32 @BIO_puts(ptr noundef %62, ptr noundef @.str.10)
  %64 = icmp sle i32 %63, 0
  br i1 %64, label %65, label %66

65:                                               ; preds = %61
  store i32 0, ptr %6, align 4
  store i32 1, ptr %14, align 4
  br label %71

66:                                               ; preds = %61
  %67 = load ptr, ptr %7, align 8, !tbaa !50
  %68 = load ptr, ptr %9, align 8, !tbaa !10
  %69 = load i32, ptr %10, align 4, !tbaa !16
  %70 = call i32 @X509_signature_dump(ptr noundef %67, ptr noundef %68, i32 noundef %69)
  store i32 %70, ptr %6, align 4
  store i32 1, ptr %14, align 4
  br label %71

71:                                               ; preds = %66, %65, %58, %25, %24
  call void @llvm.lifetime.end.p0(i64 8, ptr %13) #3
  call void @llvm.lifetime.end.p0(i64 8, ptr %12) #3
  %72 = load i32, ptr %6, align 4
  ret i32 %72
}