; Function Attrs: nounwind uwtable
define internal i32 @dsa_sig_print(ptr noundef %0, ptr readnone captures(none) %1, ptr noundef %2, i32 noundef %3, ptr readnone captures(none) %4) #0 {
  %6 = alloca ptr, align 8
  %7 = alloca ptr, align 8
  %8 = alloca ptr, align 8
  call void @llvm.lifetime.start.p0(i64 8, ptr nonnull %6) #5
  %9 = icmp eq ptr %2, null
  br i1 %9, label %10, label %13

10:                                               ; preds = %5
  %11 = tail call i32 @BIO_puts(ptr noundef %0, ptr noundef nonnull @.str.10) #5
  %12 = icmp sgt i32 %11, 0
  %. = zext i1 %12 to i32
  br label %33

13:                                               ; preds = %5
  %14 = getelementptr inbounds nuw i8, ptr %2, i64 8
  %15 = load ptr, ptr %14, align 8, !tbaa !11
  store ptr %15, ptr %6, align 8, !tbaa !15
  %16 = load i32, ptr %2, align 8, !tbaa !16
  %17 = sext i32 %16 to i64
  %18 = call ptr @d2i_DSA_SIG(ptr noundef null, ptr noundef nonnull %6, i64 noundef %17) #5
  %.not = icmp eq ptr %18, null
  br i1 %.not, label %28, label %19

19:                                               ; preds = %13
  call void @llvm.lifetime.start.p0(i64 8, ptr nonnull %7) #5
  call void @llvm.lifetime.start.p0(i64 8, ptr nonnull %8) #5
  call void @DSA_SIG_get0(ptr noundef nonnull %18, ptr noundef nonnull %7, ptr noundef nonnull %8) #5
  %20 = call i32 @BIO_write(ptr noundef %0, ptr noundef nonnull @.str.10, i32 noundef 1) #5
  %.not20 = icmp eq i32 %20, 1
  br i1 %.not20, label %21, label %27

21:                                               ; preds = %19
  %22 = load ptr, ptr %7, align 8, !tbaa !42
  %23 = call i32 @ASN1_bn_print(ptr noundef %0, ptr noundef nonnull @.str.11, ptr noundef %22, ptr noundef null, i32 noundef %3) #5
  %.not21 = icmp eq i32 %23, 0
  br i1 %.not21, label %27, label %24

24:                                               ; preds = %21
  %25 = load ptr, ptr %8, align 8, !tbaa !42
  %26 = call i32 @ASN1_bn_print(ptr noundef %0, ptr noundef nonnull @.str.12, ptr noundef %25, ptr noundef null, i32 noundef %3) #5
  %.not22 = icmp ne i32 %26, 0
  %spec.select = zext i1 %.not22 to i32
  br label %27

27:                                               ; preds = %24, %21, %19
  %.0 = phi i32 [ 0, %19 ], [ 0, %21 ], [ %spec.select, %24 ]
  call void @DSA_SIG_free(ptr noundef nonnull %18) #5
  call void @llvm.lifetime.end.p0(i64 8, ptr nonnull %8) #5
  call void @llvm.lifetime.end.p0(i64 8, ptr nonnull %7) #5
  br label %33

28:                                               ; preds = %13
  %29 = call i32 @BIO_puts(ptr noundef %0, ptr noundef nonnull @.str.10) #5
  %30 = icmp slt i32 %29, 1
  br i1 %30, label %33, label %31

31:                                               ; preds = %28
  %32 = call i32 @X509_signature_dump(ptr noundef %0, ptr noundef nonnull %2, i32 noundef %3) #5
  br label %33

33:                                               ; preds = %28, %10, %31, %27
  %.017 = phi i32 [ %.0, %27 ], [ %32, %31 ], [ %., %10 ], [ 0, %28 ]
  call void @llvm.lifetime.end.p0(i64 8, ptr nonnull %6) #5
  ret i32 %.017
}